(lp0
(lp1
F63.0
aF1.0
aF1.0
aF145.0
aF233.0
aF1.0
aF2.0
aF150.0
aF0.0
aF2.3
aF3.0
aF0.0
aF6.0
aF0.0
aa(lp2
F67.0
aF1.0
aF4.0
aF160.0
aF286.0
aF0.0
aF2.0
aF108.0
aF1.0
aF1.5
aF2.0
aF3.0
aF3.0
aF2.0
aa(lp3
F67.0
aF1.0
aF4.0
aF120.0
aF229.0
aF0.0
aF2.0
aF129.0
aF1.0
aF2.6
aF2.0
aF2.0
aF7.0
aF1.0
aa(lp4
F37.0
aF1.0
aF3.0
aF130.0
aF250.0
aF0.0
aF0.0
aF187.0
aF0.0
aF3.5
aF3.0
aF0.0
aF3.0
aF0.0
aa(lp5
F41.0
aF0.0
aF2.0
aF130.0
aF204.0
aF0.0
aF2.0
aF172.0
aF0.0
aF1.4
aF1.0
aF0.0
aF3.0
aF0.0
aa(lp6
F56.0
aF1.0
aF2.0
aF120.0
aF236.0
aF0.0
aF0.0
aF178.0
aF0.0
aF0.8
aF1.0
aF0.0
aF3.0
aF0.0
aa(lp7
F62.0
aF0.0
aF4.0
aF140.0
aF268.0
aF0.0
aF2.0
aF160.0
aF0.0
aF3.6
aF3.0
aF2.0
aF3.0
aF3.0
aa(lp8
F57.0
aF0.0
aF4.0
aF120.0
aF354.0
aF0.0
aF0.0
aF163.0
aF1.0
aF0.6
aF1.0
aF0.0
aF3.0
aF0.0
aa(lp9
F63.0
aF1.0
aF4.0
aF130.0
aF254.0
aF0.0
aF2.0
aF147.0
aF0.0
aF1.4
aF2.0
aF1.0
aF7.0
aF2.0
aa(lp10
F53.0
aF1.0
aF4.0
aF140.0
aF203.0
aF1.0
aF2.0
aF155.0
aF1.0
aF3.1
aF3.0
aF0.0
aF7.0
aF1.0
aa(lp11
F57.0
aF1.0
aF4.0
aF140.0
aF192.0
aF0.0
aF0.0
aF148.0
aF0.0
aF0.4
aF2.0
aF0.0
aF6.0
aF0.0
aa(lp12
F56.0
aF0.0
aF2.0
aF140.0
aF294.0
aF0.0
aF2.0
aF153.0
aF0.0
aF1.3
aF2.0
aF0.0
aF3.0
aF0.0
aa(lp13
F56.0
aF1.0
aF3.0
aF130.0
aF256.0
aF1.0
aF2.0
aF142.0
aF1.0
aF0.6
aF2.0
aF1.0
aF6.0
aF2.0
aa(lp14
F44.0
aF1.0
aF2.0
aF120.0
aF263.0
aF0.0
aF0.0
aF173.0
aF0.0
aF0.0
aF1.0
aF0.0
aF7.0
aF0.0
aa(lp15
F52.0
aF1.0
aF3.0
aF172.0
aF199.0
aF1.0
aF0.0
aF162.0
aF0.0
aF0.5
aF1.0
aF0.0
aF7.0
aF0.0
aa(lp16
F57.0
aF1.0
aF3.0
aF150.0
aF168.0
aF0.0
aF0.0
aF174.0
aF0.0
aF1.6
aF1.0
aF0.0
aF3.0
aF0.0
aa(lp17
F48.0
aF1.0
aF2.0
aF110.0
aF229.0
aF0.0
aF0.0
aF168.0
aF0.0
aF1.0
aF3.0
aF0.0
aF7.0
aF1.0
aa(lp18
F54.0
aF1.0
aF4.0
aF140.0
aF239.0
aF0.0
aF0.0
aF160.0
aF0.0
aF1.2
aF1.0
aF0.0
aF3.0
aF0.0
aa(lp19
F48.0
aF0.0
aF3.0
aF130.0
aF275.0
aF0.0
aF0.0
aF139.0
aF0.0
aF0.2
aF1.0
aF0.0
aF3.0
aF0.0
aa(lp20
F49.0
aF1.0
aF2.0
aF130.0
aF266.0
aF0.0
aF0.0
aF171.0
aF0.0
aF0.6
aF1.0
aF0.0
aF3.0
aF0.0
aa(lp21
F64.0
aF1.0
aF1.0
aF110.0
aF211.0
aF0.0
aF2.0
aF144.0
aF1.0
aF1.8
aF2.0
aF0.0
aF3.0
aF0.0
aa(lp22
F58.0
aF0.0
aF1.0
aF150.0
aF283.0
aF1.0
aF2.0
aF162.0
aF0.0
aF1.0
aF1.0
aF0.0
aF3.0
aF0.0
aa(lp23
F58.0
aF1.0
aF2.0
aF120.0
aF284.0
aF0.0
aF2.0
aF160.0
aF0.0
aF1.8
aF2.0
aF0.0
aF3.0
aF1.0
aa(lp24
F58.0
aF1.0
aF3.0
aF132.0
aF224.0
aF0.0
aF2.0
aF173.0
aF0.0
aF3.2
aF1.0
aF2.0
aF7.0
aF3.0
aa(lp25
F60.0
aF1.0
aF4.0
aF130.0
aF206.0
aF0.0
aF2.0
aF132.0
aF1.0
aF2.4
aF2.0
aF2.0
aF7.0
aF4.0
aa(lp26
F50.0
aF0.0
aF3.0
aF120.0
aF219.0
aF0.0
aF0.0
aF158.0
aF0.0
aF1.6
aF2.0
aF0.0
aF3.0
aF0.0
aa(lp27
F58.0
aF0.0
aF3.0
aF120.0
aF340.0
aF0.0
aF0.0
aF172.0
aF0.0
aF0.0
aF1.0
aF0.0
aF3.0
aF0.0
aa(lp28
F66.0
aF0.0
aF1.0
aF150.0
aF226.0
aF0.0
aF0.0
aF114.0
aF0.0
aF2.6
aF3.0
aF0.0
aF3.0
aF0.0
aa(lp29
F43.0
aF1.0
aF4.0
aF150.0
aF247.0
aF0.0
aF0.0
aF171.0
aF0.0
aF1.5
aF1.0
aF0.0
aF3.0
aF0.0
aa(lp30
F40.0
aF1.0
aF4.0
aF110.0
aF167.0
aF0.0
aF2.0
aF114.0
aF1.0
aF2.0
aF2.0
aF0.0
aF7.0
aF3.0
aa(lp31
F69.0
aF0.0
aF1.0
aF140.0
aF239.0
aF0.0
aF0.0
aF151.0
aF0.0
aF1.8
aF1.0
aF2.0
aF3.0
aF0.0
aa(lp32
F60.0
aF1.0
aF4.0
aF117.0
aF230.0
aF1.0
aF0.0
aF160.0
aF1.0
aF1.4
aF1.0
aF2.0
aF7.0
aF2.0
aa(lp33
F64.0
aF1.0
aF3.0
aF140.0
aF335.0
aF0.0
aF0.0
aF158.0
aF0.0
aF0.0
aF1.0
aF0.0
aF3.0
aF1.0
aa(lp34
F59.0
aF1.0
aF4.0
aF135.0
aF234.0
aF0.0
aF0.0
aF161.0
aF0.0
aF0.5
aF2.0
aF0.0
aF7.0
aF0.0
aa(lp35
F44.0
aF1.0
aF3.0
aF130.0
aF233.0
aF0.0
aF0.0
aF179.0
aF1.0
aF0.4
aF1.0
aF0.0
aF3.0
aF0.0
aa(lp36
F42.0
aF1.0
aF4.0
aF140.0
aF226.0
aF0.0
aF0.0
aF178.0
aF0.0
aF0.0
aF1.0
aF0.0
aF3.0
aF0.0
aa(lp37
F43.0
aF1.0
aF4.0
aF120.0
aF177.0
aF0.0
aF2.0
aF120.0
aF1.0
aF2.5
aF2.0
aF0.0
aF7.0
aF3.0
aa(lp38
F57.0
aF1.0
aF4.0
aF150.0
aF276.0
aF0.0
aF2.0
aF112.0
aF1.0
aF0.6
aF2.0
aF1.0
aF6.0
aF1.0
aa(lp39
F55.0
aF1.0
aF4.0
aF132.0
aF353.0
aF0.0
aF0.0
aF132.0
aF1.0
aF1.2
aF2.0
aF1.0
aF7.0
aF3.0
aa(lp40
F61.0
aF1.0
aF3.0
aF150.0
aF243.0
aF1.0
aF0.0
aF137.0
aF1.0
aF1.0
aF2.0
aF0.0
aF3.0
aF0.0
aa(lp41
F65.0
aF0.0
aF4.0
aF150.0
aF225.0
aF0.0
aF2.0
aF114.0
aF0.0
aF1.0
aF2.0
aF3.0
aF7.0
aF4.0
aa(lp42
F40.0
aF1.0
aF1.0
aF140.0
aF199.0
aF0.0
aF0.0
aF178.0
aF1.0
aF1.4
aF1.0
aF0.0
aF7.0
aF0.0
aa(lp43
F71.0
aF0.0
aF2.0
aF160.0
aF302.0
aF0.0
aF0.0
aF162.0
aF0.0
aF0.4
aF1.0
aF2.0
aF3.0
aF0.0
aa(lp44
F59.0
aF1.0
aF3.0
aF150.0
aF212.0
aF1.0
aF0.0
aF157.0
aF0.0
aF1.6
aF1.0
aF0.0
aF3.0
aF0.0
aa(lp45
F61.0
aF0.0
aF4.0
aF130.0
aF330.0
aF0.0
aF2.0
aF169.0
aF0.0
aF0.0
aF1.0
aF0.0
aF3.0
aF1.0
aa(lp46
F58.0
aF1.0
aF3.0
aF112.0
aF230.0
aF0.0
aF2.0
aF165.0
aF0.0
aF2.5
aF2.0
aF1.0
aF7.0
aF4.0
aa(lp47
F51.0
aF1.0
aF3.0
aF110.0
aF175.0
aF0.0
aF0.0
aF123.0
aF0.0
aF0.6
aF1.0
aF0.0
aF3.0
aF0.0
aa(lp48
F50.0
aF1.0
aF4.0
aF150.0
aF243.0
aF0.0
aF2.0
aF128.0
aF0.0
aF2.6
aF2.0
aF0.0
aF7.0
aF4.0
aa(lp49
F65.0
aF0.0
aF3.0
aF140.0
aF417.0
aF1.0
aF2.0
aF157.0
aF0.0
aF0.8
aF1.0
aF1.0
aF3.0
aF0.0
aa(lp50
F53.0
aF1.0
aF3.0
aF130.0
aF197.0
aF1.0
aF2.0
aF152.0
aF0.0
aF1.2
aF3.0
aF0.0
aF3.0
aF0.0
aa(lp51
F41.0
aF0.0
aF2.0
aF105.0
aF198.0
aF0.0
aF0.0
aF168.0
aF0.0
aF0.0
aF1.0
aF1.0
aF3.0
aF0.0
aa(lp52
F65.0
aF1.0
aF4.0
aF120.0
aF177.0
aF0.0
aF0.0
aF140.0
aF0.0
aF0.4
aF1.0
aF0.0
aF7.0
aF0.0
aa(lp53
F44.0
aF1.0
aF4.0
aF112.0
aF290.0
aF0.0
aF2.0
aF153.0
aF0.0
aF0.0
aF1.0
aF1.0
aF3.0
aF2.0
aa(lp54
F44.0
aF1.0
aF2.0
aF130.0
aF219.0
aF0.0
aF2.0
aF188.0
aF0.0
aF0.0
aF1.0
aF0.0
aF3.0
aF0.0
aa(lp55
F60.0
aF1.0
aF4.0
aF130.0
aF253.0
aF0.0
aF0.0
aF144.0
aF1.0
aF1.4
aF1.0
aF1.0
aF7.0
aF1.0
aa(lp56
F54.0
aF1.0
aF4.0
aF124.0
aF266.0
aF0.0
aF2.0
aF109.0
aF1.0
aF2.2
aF2.0
aF1.0
aF7.0
aF1.0
aa(lp57
F50.0
aF1.0
aF3.0
aF140.0
aF233.0
aF0.0
aF0.0
aF163.0
aF0.0
aF0.6
aF2.0
aF1.0
aF7.0
aF1.0
aa(lp58
F41.0
aF1.0
aF4.0
aF110.0
aF172.0
aF0.0
aF2.0
aF158.0
aF0.0
aF0.0
aF1.0
aF0.0
aF7.0
aF1.0
aa(lp59
F54.0
aF1.0
aF3.0
aF125.0
aF273.0
aF0.0
aF2.0
aF152.0
aF0.0
aF0.5
aF3.0
aF1.0
aF3.0
aF0.0
aa(lp60
F51.0
aF1.0
aF1.0
aF125.0
aF213.0
aF0.0
aF2.0
aF125.0
aF1.0
aF1.4
aF1.0
aF1.0
aF3.0
aF0.0
aa(lp61
F51.0
aF0.0
aF4.0
aF130.0
aF305.0
aF0.0
aF0.0
aF142.0
aF1.0
aF1.2
aF2.0
aF0.0
aF7.0
aF2.0
aa(lp62
F46.0
aF0.0
aF3.0
aF142.0
aF177.0
aF0.0
aF2.0
aF160.0
aF1.0
aF1.4
aF3.0
aF0.0
aF3.0
aF0.0
aa(lp63
F58.0
aF1.0
aF4.0
aF128.0
aF216.0
aF0.0
aF2.0
aF131.0
aF1.0
aF2.2
aF2.0
aF3.0
aF7.0
aF1.0
aa(lp64
F54.0
aF0.0
aF3.0
aF135.0
aF304.0
aF1.0
aF0.0
aF170.0
aF0.0
aF0.0
aF1.0
aF0.0
aF3.0
aF0.0
aa(lp65
F54.0
aF1.0
aF4.0
aF120.0
aF188.0
aF0.0
aF0.0
aF113.0
aF0.0
aF1.4
aF2.0
aF1.0
aF7.0
aF2.0
aa(lp66
F60.0
aF1.0
aF4.0
aF145.0
aF282.0
aF0.0
aF2.0
aF142.0
aF1.0
aF2.8
aF2.0
aF2.0
aF7.0
aF2.0
aa(lp67
F60.0
aF1.0
aF3.0
aF140.0
aF185.0
aF0.0
aF2.0
aF155.0
aF0.0
aF3.0
aF2.0
aF0.0
aF3.0
aF1.0
aa(lp68
F54.0
aF1.0
aF3.0
aF150.0
aF232.0
aF0.0
aF2.0
aF165.0
aF0.0
aF1.6
aF1.0
aF0.0
aF7.0
aF0.0
aa(lp69
F59.0
aF1.0
aF4.0
aF170.0
aF326.0
aF0.0
aF2.0
aF140.0
aF1.0
aF3.4
aF3.0
aF0.0
aF7.0
aF2.0
aa(lp70
F46.0
aF1.0
aF3.0
aF150.0
aF231.0
aF0.0
aF0.0
aF147.0
aF0.0
aF3.6
aF2.0
aF0.0
aF3.0
aF1.0
aa(lp71
F65.0
aF0.0
aF3.0
aF155.0
aF269.0
aF0.0
aF0.0
aF148.0
aF0.0
aF0.8
aF1.0
aF0.0
aF3.0
aF0.0
aa(lp72
F67.0
aF1.0
aF4.0
aF125.0
aF254.0
aF1.0
aF0.0
aF163.0
aF0.0
aF0.2
aF2.0
aF2.0
aF7.0
aF3.0
aa(lp73
F62.0
aF1.0
aF4.0
aF120.0
aF267.0
aF0.0
aF0.0
aF99.0
aF1.0
aF1.8
aF2.0
aF2.0
aF7.0
aF1.0
aa(lp74
F65.0
aF1.0
aF4.0
aF110.0
aF248.0
aF0.0
aF2.0
aF158.0
aF0.0
aF0.6
aF1.0
aF2.0
aF6.0
aF1.0
aa(lp75
F44.0
aF1.0
aF4.0
aF110.0
aF197.0
aF0.0
aF2.0
aF177.0
aF0.0
aF0.0
aF1.0
aF1.0
aF3.0
aF1.0
aa(lp76
F65.0
aF0.0
aF3.0
aF160.0
aF360.0
aF0.0
aF2.0
aF151.0
aF0.0
aF0.8
aF1.0
aF0.0
aF3.0
aF0.0
aa(lp77
F60.0
aF1.0
aF4.0
aF125.0
aF258.0
aF0.0
aF2.0
aF141.0
aF1.0
aF2.8
aF2.0
aF1.0
aF7.0
aF1.0
aa(lp78
F51.0
aF0.0
aF3.0
aF140.0
aF308.0
aF0.0
aF2.0
aF142.0
aF0.0
aF1.5
aF1.0
aF1.0
aF3.0
aF0.0
aa(lp79
F48.0
aF1.0
aF2.0
aF130.0
aF245.0
aF0.0
aF2.0
aF180.0
aF0.0
aF0.2
aF2.0
aF0.0
aF3.0
aF0.0
aa(lp80
F58.0
aF1.0
aF4.0
aF150.0
aF270.0
aF0.0
aF2.0
aF111.0
aF1.0
aF0.8
aF1.0
aF0.0
aF7.0
aF3.0
aa(lp81
F45.0
aF1.0
aF4.0
aF104.0
aF208.0
aF0.0
aF2.0
aF148.0
aF1.0
aF3.0
aF2.0
aF0.0
aF3.0
aF0.0
aa(lp82
F53.0
aF0.0
aF4.0
aF130.0
aF264.0
aF0.0
aF2.0
aF143.0
aF0.0
aF0.4
aF2.0
aF0.0
aF3.0
aF0.0
aa(lp83
F39.0
aF1.0
aF3.0
aF140.0
aF321.0
aF0.0
aF2.0
aF182.0
aF0.0
aF0.0
aF1.0
aF0.0
aF3.0
aF0.0
aa(lp84
F68.0
aF1.0
aF3.0
aF180.0
aF274.0
aF1.0
aF2.0
aF150.0
aF1.0
aF1.6
aF2.0
aF0.0
aF7.0
aF3.0
aa(lp85
F52.0
aF1.0
aF2.0
aF120.0
aF325.0
aF0.0
aF0.0
aF172.0
aF0.0
aF0.2
aF1.0
aF0.0
aF3.0
aF0.0
aa(lp86
F44.0
aF1.0
aF3.0
aF140.0
aF235.0
aF0.0
aF2.0
aF180.0
aF0.0
aF0.0
aF1.0
aF0.0
aF3.0
aF0.0
aa(lp87
F47.0
aF1.0
aF3.0
aF138.0
aF257.0
aF0.0
aF2.0
aF156.0
aF0.0
aF0.0
aF1.0
aF0.0
aF3.0
aF0.0
aa(lp88
F53.0
aF0.0
aF4.0
aF138.0
aF234.0
aF0.0
aF2.0
aF160.0
aF0.0
aF0.0
aF1.0
aF0.0
aF3.0
aF0.0
aa(lp89
F51.0
aF0.0
aF3.0
aF130.0
aF256.0
aF0.0
aF2.0
aF149.0
aF0.0
aF0.5
aF1.0
aF0.0
aF3.0
aF0.0
aa(lp90
F66.0
aF1.0
aF4.0
aF120.0
aF302.0
aF0.0
aF2.0
aF151.0
aF0.0
aF0.4
aF2.0
aF0.0
aF3.0
aF0.0
aa(lp91
F62.0
aF0.0
aF4.0
aF160.0
aF164.0
aF0.0
aF2.0
aF145.0
aF0.0
aF6.2
aF3.0
aF3.0
aF7.0
aF3.0
aa(lp92
F62.0
aF1.0
aF3.0
aF130.0
aF231.0
aF0.0
aF0.0
aF146.0
aF0.0
aF1.8
aF2.0
aF3.0
aF7.0
aF0.0
aa(lp93
F44.0
aF0.0
aF3.0
aF108.0
aF141.0
aF0.0
aF0.0
aF175.0
aF0.0
aF0.6
aF2.0
aF0.0
aF3.0
aF0.0
aa(lp94
F63.0
aF0.0
aF3.0
aF135.0
aF252.0
aF0.0
aF2.0
aF172.0
aF0.0
aF0.0
aF1.0
aF0.0
aF3.0
aF0.0
aa(lp95
F52.0
aF1.0
aF4.0
aF128.0
aF255.0
aF0.0
aF0.0
aF161.0
aF1.0
aF0.0
aF1.0
aF1.0
aF7.0
aF1.0
aa(lp96
F59.0
aF1.0
aF4.0
aF110.0
aF239.0
aF0.0
aF2.0
aF142.0
aF1.0
aF1.2
aF2.0
aF1.0
aF7.0
aF2.0
aa(lp97
F60.0
aF0.0
aF4.0
aF150.0
aF258.0
aF0.0
aF2.0
aF157.0
aF0.0
aF2.6
aF2.0
aF2.0
aF7.0
aF3.0
aa(lp98
F52.0
aF1.0
aF2.0
aF134.0
aF201.0
aF0.0
aF0.0
aF158.0
aF0.0
aF0.8
aF1.0
aF1.0
aF3.0
aF0.0
aa(lp99
F48.0
aF1.0
aF4.0
aF122.0
aF222.0
aF0.0
aF2.0
aF186.0
aF0.0
aF0.0
aF1.0
aF0.0
aF3.0
aF0.0
aa(lp100
F45.0
aF1.0
aF4.0
aF115.0
aF260.0
aF0.0
aF2.0
aF185.0
aF0.0
aF0.0
aF1.0
aF0.0
aF3.0
aF0.0
aa(lp101
F34.0
aF1.0
aF1.0
aF118.0
aF182.0
aF0.0
aF2.0
aF174.0
aF0.0
aF0.0
aF1.0
aF0.0
aF3.0
aF0.0
aa(lp102
F57.0
aF0.0
aF4.0
aF128.0
aF303.0
aF0.0
aF2.0
aF159.0
aF0.0
aF0.0
aF1.0
aF1.0
aF3.0
aF0.0
aa(lp103
F71.0
aF0.0
aF3.0
aF110.0
aF265.0
aF1.0
aF2.0
aF130.0
aF0.0
aF0.0
aF1.0
aF1.0
aF3.0
aF0.0
aa(lp104
F49.0
aF1.0
aF3.0
aF120.0
aF188.0
aF0.0
aF0.0
aF139.0
aF0.0
aF2.0
aF2.0
aF3.0
aF7.0
aF3.0
aa(lp105
F54.0
aF1.0
aF2.0
aF108.0
aF309.0
aF0.0
aF0.0
aF156.0
aF0.0
aF0.0
aF1.0
aF0.0
aF7.0
aF0.0
aa(lp106
F59.0
aF1.0
aF4.0
aF140.0
aF177.0
aF0.0
aF0.0
aF162.0
aF1.0
aF0.0
aF1.0
aF1.0
aF7.0
aF2.0
aa(lp107
F57.0
aF1.0
aF3.0
aF128.0
aF229.0
aF0.0
aF2.0
aF150.0
aF0.0
aF0.4
aF2.0
aF1.0
aF7.0
aF1.0
aa(lp108
F61.0
aF1.0
aF4.0
aF120.0
aF260.0
aF0.0
aF0.0
aF140.0
aF1.0
aF3.6
aF2.0
aF1.0
aF7.0
aF2.0
aa(lp109
F39.0
aF1.0
aF4.0
aF118.0
aF219.0
aF0.0
aF0.0
aF140.0
aF0.0
aF1.2
aF2.0
aF0.0
aF7.0
aF3.0
aa(lp110
F61.0
aF0.0
aF4.0
aF145.0
aF307.0
aF0.0
aF2.0
aF146.0
aF1.0
aF1.0
aF2.0
aF0.0
aF7.0
aF1.0
aa(lp111
F56.0
aF1.0
aF4.0
aF125.0
aF249.0
aF1.0
aF2.0
aF144.0
aF1.0
aF1.2
aF2.0
aF1.0
aF3.0
aF1.0
aa(lp112
F52.0
aF1.0
aF1.0
aF118.0
aF186.0
aF0.0
aF2.0
aF190.0
aF0.0
aF0.0
aF2.0
aF0.0
aF6.0
aF0.0
aa(lp113
F43.0
aF0.0
aF4.0
aF132.0
aF341.0
aF1.0
aF2.0
aF136.0
aF1.0
aF3.0
aF2.0
aF0.0
aF7.0
aF2.0
aa(lp114
F62.0
aF0.0
aF3.0
aF130.0
aF263.0
aF0.0
aF0.0
aF97.0
aF0.0
aF1.2
aF2.0
aF1.0
aF7.0
aF2.0
aa(lp115
F41.0
aF1.0
aF2.0
aF135.0
aF203.0
aF0.0
aF0.0
aF132.0
aF0.0
aF0.0
aF2.0
aF0.0
aF6.0
aF0.0
aa(lp116
F58.0
aF1.0
aF3.0
aF140.0
aF211.0
aF1.0
aF2.0
aF165.0
aF0.0
aF0.0
aF1.0
aF0.0
aF3.0
aF0.0
aa(lp117
F35.0
aF0.0
aF4.0
aF138.0
aF183.0
aF0.0
aF0.0
aF182.0
aF0.0
aF1.4
aF1.0
aF0.0
aF3.0
aF0.0
aa(lp118
F63.0
aF1.0
aF4.0
aF130.0
aF330.0
aF1.0
aF2.0
aF132.0
aF1.0
aF1.8
aF1.0
aF3.0
aF7.0
aF3.0
aa(lp119
F65.0
aF1.0
aF4.0
aF135.0
aF254.0
aF0.0
aF2.0
aF127.0
aF0.0
aF2.8
aF2.0
aF1.0
aF7.0
aF2.0
aa(lp120
F48.0
aF1.0
aF4.0
aF130.0
aF256.0
aF1.0
aF2.0
aF150.0
aF1.0
aF0.0
aF1.0
aF2.0
aF7.0
aF3.0
aa(lp121
F63.0
aF0.0
aF4.0
aF150.0
aF407.0
aF0.0
aF2.0
aF154.0
aF0.0
aF4.0
aF2.0
aF3.0
aF7.0
aF4.0
aa(lp122
F51.0
aF1.0
aF3.0
aF100.0
aF222.0
aF0.0
aF0.0
aF143.0
aF1.0
aF1.2
aF2.0
aF0.0
aF3.0
aF0.0
aa(lp123
F55.0
aF1.0
aF4.0
aF140.0
aF217.0
aF0.0
aF0.0
aF111.0
aF1.0
aF5.6
aF3.0
aF0.0
aF7.0
aF3.0
aa(lp124
F65.0
aF1.0
aF1.0
aF138.0
aF282.0
aF1.0
aF2.0
aF174.0
aF0.0
aF1.4
aF2.0
aF1.0
aF3.0
aF1.0
aa(lp125
F45.0
aF0.0
aF2.0
aF130.0
aF234.0
aF0.0
aF2.0
aF175.0
aF0.0
aF0.6
aF2.0
aF0.0
aF3.0
aF0.0
aa(lp126
F56.0
aF0.0
aF4.0
aF200.0
aF288.0
aF1.0
aF2.0
aF133.0
aF1.0
aF4.0
aF3.0
aF2.0
aF7.0
aF3.0
aa(lp127
F54.0
aF1.0
aF4.0
aF110.0
aF239.0
aF0.0
aF0.0
aF126.0
aF1.0
aF2.8
aF2.0
aF1.0
aF7.0
aF3.0
aa(lp128
F44.0
aF1.0
aF2.0
aF120.0
aF220.0
aF0.0
aF0.0
aF170.0
aF0.0
aF0.0
aF1.0
aF0.0
aF3.0
aF0.0
aa(lp129
F62.0
aF0.0
aF4.0
aF124.0
aF209.0
aF0.0
aF0.0
aF163.0
aF0.0
aF0.0
aF1.0
aF0.0
aF3.0
aF0.0
aa(lp130
F54.0
aF1.0
aF3.0
aF120.0
aF258.0
aF0.0
aF2.0
aF147.0
aF0.0
aF0.4
aF2.0
aF0.0
aF7.0
aF0.0
aa(lp131
F51.0
aF1.0
aF3.0
aF94.0
aF227.0
aF0.0
aF0.0
aF154.0
aF1.0
aF0.0
aF1.0
aF1.0
aF7.0
aF0.0
aa(lp132
F29.0
aF1.0
aF2.0
aF130.0
aF204.0
aF0.0
aF2.0
aF202.0
aF0.0
aF0.0
aF1.0
aF0.0
aF3.0
aF0.0
aa(lp133
F51.0
aF1.0
aF4.0
aF140.0
aF261.0
aF0.0
aF2.0
aF186.0
aF1.0
aF0.0
aF1.0
aF0.0
aF3.0
aF0.0
aa(lp134
F43.0
aF0.0
aF3.0
aF122.0
aF213.0
aF0.0
aF0.0
aF165.0
aF0.0
aF0.2
aF2.0
aF0.0
aF3.0
aF0.0
aa(lp135
F55.0
aF0.0
aF2.0
aF135.0
aF250.0
aF0.0
aF2.0
aF161.0
aF0.0
aF1.4
aF2.0
aF0.0
aF3.0
aF0.0
aa(lp136
F70.0
aF1.0
aF4.0
aF145.0
aF174.0
aF0.0
aF0.0
aF125.0
aF1.0
aF2.6
aF3.0
aF0.0
aF7.0
aF4.0
aa(lp137
F62.0
aF1.0
aF2.0
aF120.0
aF281.0
aF0.0
aF2.0
aF103.0
aF0.0
aF1.4
aF2.0
aF1.0
aF7.0
aF3.0
aa(lp138
F35.0
aF1.0
aF4.0
aF120.0
aF198.0
aF0.0
aF0.0
aF130.0
aF1.0
aF1.6
aF2.0
aF0.0
aF7.0
aF1.0
aa(lp139
F51.0
aF1.0
aF3.0
aF125.0
aF245.0
aF1.0
aF2.0
aF166.0
aF0.0
aF2.4
aF2.0
aF0.0
aF3.0
aF0.0
aa(lp140
F59.0
aF1.0
aF2.0
aF140.0
aF221.0
aF0.0
aF0.0
aF164.0
aF1.0
aF0.0
aF1.0
aF0.0
aF3.0
aF0.0
aa(lp141
F59.0
aF1.0
aF1.0
aF170.0
aF288.0
aF0.0
aF2.0
aF159.0
aF0.0
aF0.2
aF2.0
aF0.0
aF7.0
aF1.0
aa(lp142
F52.0
aF1.0
aF2.0
aF128.0
aF205.0
aF1.0
aF0.0
aF184.0
aF0.0
aF0.0
aF1.0
aF0.0
aF3.0
aF0.0
aa(lp143
F64.0
aF1.0
aF3.0
aF125.0
aF309.0
aF0.0
aF0.0
aF131.0
aF1.0
aF1.8
aF2.0
aF0.0
aF7.0
aF1.0
aa(lp144
F58.0
aF1.0
aF3.0
aF105.0
aF240.0
aF0.0
aF2.0
aF154.0
aF1.0
aF0.6
aF2.0
aF0.0
aF7.0
aF0.0
aa(lp145
F47.0
aF1.0
aF3.0
aF108.0
aF243.0
aF0.0
aF0.0
aF152.0
aF0.0
aF0.0
aF1.0
aF0.0
aF3.0
aF1.0
aa(lp146
F57.0
aF1.0
aF4.0
aF165.0
aF289.0
aF1.0
aF2.0
aF124.0
aF0.0
aF1.0
aF2.0
aF3.0
aF7.0
aF4.0
aa(lp147
F41.0
aF1.0
aF3.0
aF112.0
aF250.0
aF0.0
aF0.0
aF179.0
aF0.0
aF0.0
aF1.0
aF0.0
aF3.0
aF0.0
aa(lp148
F45.0
aF1.0
aF2.0
aF128.0
aF308.0
aF0.0
aF2.0
aF170.0
aF0.0
aF0.0
aF1.0
aF0.0
aF3.0
aF0.0
aa(lp149
F60.0
aF0.0
aF3.0
aF102.0
aF318.0
aF0.0
aF0.0
aF160.0
aF0.0
aF0.0
aF1.0
aF1.0
aF3.0
aF0.0
aa(lp150
F52.0
aF1.0
aF1.0
aF152.0
aF298.0
aF1.0
aF0.0
aF178.0
aF0.0
aF1.2
aF2.0
aF0.0
aF7.0
aF0.0
aa(lp151
F42.0
aF0.0
aF4.0
aF102.0
aF265.0
aF0.0
aF2.0
aF122.0
aF0.0
aF0.6
aF2.0
aF0.0
aF3.0
aF0.0
aa(lp152
F67.0
aF0.0
aF3.0
aF115.0
aF564.0
aF0.0
aF2.0
aF160.0
aF0.0
aF1.6
aF2.0
aF0.0
aF7.0
aF0.0
aa(lp153
F55.0
aF1.0
aF4.0
aF160.0
aF289.0
aF0.0
aF2.0
aF145.0
aF1.0
aF0.8
aF2.0
aF1.0
aF7.0
aF4.0
aa(lp154
F64.0
aF1.0
aF4.0
aF120.0
aF246.0
aF0.0
aF2.0
aF96.0
aF1.0
aF2.2
aF3.0
aF1.0
aF3.0
aF3.0
aa(lp155
F70.0
aF1.0
aF4.0
aF130.0
aF322.0
aF0.0
aF2.0
aF109.0
aF0.0
aF2.4
aF2.0
aF3.0
aF3.0
aF1.0
aa(lp156
F51.0
aF1.0
aF4.0
aF140.0
aF299.0
aF0.0
aF0.0
aF173.0
aF1.0
aF1.6
aF1.0
aF0.0
aF7.0
aF1.0
aa(lp157
F58.0
aF1.0
aF4.0
aF125.0
aF300.0
aF0.0
aF2.0
aF171.0
aF0.0
aF0.0
aF1.0
aF2.0
aF7.0
aF1.0
aa(lp158
F60.0
aF1.0
aF4.0
aF140.0
aF293.0
aF0.0
aF2.0
aF170.0
aF0.0
aF1.2
aF2.0
aF2.0
aF7.0
aF2.0
aa(lp159
F68.0
aF1.0
aF3.0
aF118.0
aF277.0
aF0.0
aF0.0
aF151.0
aF0.0
aF1.0
aF1.0
aF1.0
aF7.0
aF0.0
aa(lp160
F46.0
aF1.0
aF2.0
aF101.0
aF197.0
aF1.0
aF0.0
aF156.0
aF0.0
aF0.0
aF1.0
aF0.0
aF7.0
aF0.0
aa(lp161
F77.0
aF1.0
aF4.0
aF125.0
aF304.0
aF0.0
aF2.0
aF162.0
aF1.0
aF0.0
aF1.0
aF3.0
aF3.0
aF4.0
aa(lp162
F54.0
aF0.0
aF3.0
aF110.0
aF214.0
aF0.0
aF0.0
aF158.0
aF0.0
aF1.6
aF2.0
aF0.0
aF3.0
aF0.0
aa(lp163
F58.0
aF0.0
aF4.0
aF100.0
aF248.0
aF0.0
aF2.0
aF122.0
aF0.0
aF1.0
aF2.0
aF0.0
aF3.0
aF0.0
aa(lp164
F48.0
aF1.0
aF3.0
aF124.0
aF255.0
aF1.0
aF0.0
aF175.0
aF0.0
aF0.0
aF1.0
aF2.0
aF3.0
aF0.0
aa(lp165
F57.0
aF1.0
aF4.0
aF132.0
aF207.0
aF0.0
aF0.0
aF168.0
aF1.0
aF0.0
aF1.0
aF0.0
aF7.0
aF0.0
aa(lp166
F54.0
aF0.0
aF2.0
aF132.0
aF288.0
aF1.0
aF2.0
aF159.0
aF1.0
aF0.0
aF1.0
aF1.0
aF3.0
aF0.0
aa(lp167
F35.0
aF1.0
aF4.0
aF126.0
aF282.0
aF0.0
aF2.0
aF156.0
aF1.0
aF0.0
aF1.0
aF0.0
aF7.0
aF1.0
aa(lp168
F45.0
aF0.0
aF2.0
aF112.0
aF160.0
aF0.0
aF0.0
aF138.0
aF0.0
aF0.0
aF2.0
aF0.0
aF3.0
aF0.0
aa(lp169
F70.0
aF1.0
aF3.0
aF160.0
aF269.0
aF0.0
aF0.0
aF112.0
aF1.0
aF2.9
aF2.0
aF1.0
aF7.0
aF3.0
aa(lp170
F53.0
aF1.0
aF4.0
aF142.0
aF226.0
aF0.0
aF2.0
aF111.0
aF1.0
aF0.0
aF1.0
aF0.0
aF7.0
aF0.0
aa(lp171
F59.0
aF0.0
aF4.0
aF174.0
aF249.0
aF0.0
aF0.0
aF143.0
aF1.0
aF0.0
aF2.0
aF0.0
aF3.0
aF1.0
aa(lp172
F62.0
aF0.0
aF4.0
aF140.0
aF394.0
aF0.0
aF2.0
aF157.0
aF0.0
aF1.2
aF2.0
aF0.0
aF3.0
aF0.0
aa(lp173
F64.0
aF1.0
aF4.0
aF145.0
aF212.0
aF0.0
aF2.0
aF132.0
aF0.0
aF2.0
aF2.0
aF2.0
aF6.0
aF4.0
aa(lp174
F57.0
aF1.0
aF4.0
aF152.0
aF274.0
aF0.0
aF0.0
aF88.0
aF1.0
aF1.2
aF2.0
aF1.0
aF7.0
aF1.0
aa(lp175
F52.0
aF1.0
aF4.0
aF108.0
aF233.0
aF1.0
aF0.0
aF147.0
aF0.0
aF0.1
aF1.0
aF3.0
aF7.0
aF0.0
aa(lp176
F56.0
aF1.0
aF4.0
aF132.0
aF184.0
aF0.0
aF2.0
aF105.0
aF1.0
aF2.1
aF2.0
aF1.0
aF6.0
aF1.0
aa(lp177
F43.0
aF1.0
aF3.0
aF130.0
aF315.0
aF0.0
aF0.0
aF162.0
aF0.0
aF1.9
aF1.0
aF1.0
aF3.0
aF0.0
aa(lp178
F53.0
aF1.0
aF3.0
aF130.0
aF246.0
aF1.0
aF2.0
aF173.0
aF0.0
aF0.0
aF1.0
aF3.0
aF3.0
aF0.0
aa(lp179
F48.0
aF1.0
aF4.0
aF124.0
aF274.0
aF0.0
aF2.0
aF166.0
aF0.0
aF0.5
aF2.0
aF0.0
aF7.0
aF3.0
aa(lp180
F56.0
aF0.0
aF4.0
aF134.0
aF409.0
aF0.0
aF2.0
aF150.0
aF1.0
aF1.9
aF2.0
aF2.0
aF7.0
aF2.0
aa(lp181
F42.0
aF1.0
aF1.0
aF148.0
aF244.0
aF0.0
aF2.0
aF178.0
aF0.0
aF0.8
aF1.0
aF2.0
aF3.0
aF0.0
aa(lp182
F59.0
aF1.0
aF1.0
aF178.0
aF270.0
aF0.0
aF2.0
aF145.0
aF0.0
aF4.2
aF3.0
aF0.0
aF7.0
aF0.0
aa(lp183
F60.0
aF0.0
aF4.0
aF158.0
aF305.0
aF0.0
aF2.0
aF161.0
aF0.0
aF0.0
aF1.0
aF0.0
aF3.0
aF1.0
aa(lp184
F63.0
aF0.0
aF2.0
aF140.0
aF195.0
aF0.0
aF0.0
aF179.0
aF0.0
aF0.0
aF1.0
aF2.0
aF3.0
aF0.0
aa(lp185
F42.0
aF1.0
aF3.0
aF120.0
aF240.0
aF1.0
aF0.0
aF194.0
aF0.0
aF0.8
aF3.0
aF0.0
aF7.0
aF0.0
aa(lp186
F66.0
aF1.0
aF2.0
aF160.0
aF246.0
aF0.0
aF0.0
aF120.0
aF1.0
aF0.0
aF2.0
aF3.0
aF6.0
aF2.0
aa(lp187
F54.0
aF1.0
aF2.0
aF192.0
aF283.0
aF0.0
aF2.0
aF195.0
aF0.0
aF0.0
aF1.0
aF1.0
aF7.0
aF1.0
aa(lp188
F69.0
aF1.0
aF3.0
aF140.0
aF254.0
aF0.0
aF2.0
aF146.0
aF0.0
aF2.0
aF2.0
aF3.0
aF7.0
aF2.0
aa(lp189
F50.0
aF1.0
aF3.0
aF129.0
aF196.0
aF0.0
aF0.0
aF163.0
aF0.0
aF0.0
aF1.0
aF0.0
aF3.0
aF0.0
aa(lp190
F51.0
aF1.0
aF4.0
aF140.0
aF298.0
aF0.0
aF0.0
aF122.0
aF1.0
aF4.2
aF2.0
aF3.0
aF7.0
aF3.0
aa(lp191
F62.0
aF0.0
aF4.0
aF138.0
aF294.0
aF1.0
aF0.0
aF106.0
aF0.0
aF1.9
aF2.0
aF3.0
aF3.0
aF2.0
aa(lp192
F68.0
aF0.0
aF3.0
aF120.0
aF211.0
aF0.0
aF2.0
aF115.0
aF0.0
aF1.5
aF2.0
aF0.0
aF3.0
aF0.0
aa(lp193
F67.0
aF1.0
aF4.0
aF100.0
aF299.0
aF0.0
aF2.0
aF125.0
aF1.0
aF0.9
aF2.0
aF2.0
aF3.0
aF3.0
aa(lp194
F69.0
aF1.0
aF1.0
aF160.0
aF234.0
aF1.0
aF2.0
aF131.0
aF0.0
aF0.1
aF2.0
aF1.0
aF3.0
aF0.0
aa(lp195
F45.0
aF0.0
aF4.0
aF138.0
aF236.0
aF0.0
aF2.0
aF152.0
aF1.0
aF0.2
aF2.0
aF0.0
aF3.0
aF0.0
aa(lp196
F50.0
aF0.0
aF2.0
aF120.0
aF244.0
aF0.0
aF0.0
aF162.0
aF0.0
aF1.1
aF1.0
aF0.0
aF3.0
aF0.0
aa(lp197
F59.0
aF1.0
aF1.0
aF160.0
aF273.0
aF0.0
aF2.0
aF125.0
aF0.0
aF0.0
aF1.0
aF0.0
aF3.0
aF1.0
aa(lp198
F50.0
aF0.0
aF4.0
aF110.0
aF254.0
aF0.0
aF2.0
aF159.0
aF0.0
aF0.0
aF1.0
aF0.0
aF3.0
aF0.0
aa(lp199
F64.0
aF0.0
aF4.0
aF180.0
aF325.0
aF0.0
aF0.0
aF154.0
aF1.0
aF0.0
aF1.0
aF0.0
aF3.0
aF0.0
aa(lp200
F57.0
aF1.0
aF3.0
aF150.0
aF126.0
aF1.0
aF0.0
aF173.0
aF0.0
aF0.2
aF1.0
aF1.0
aF7.0
aF0.0
aa(lp201
F64.0
aF0.0
aF3.0
aF140.0
aF313.0
aF0.0
aF0.0
aF133.0
aF0.0
aF0.2
aF1.0
aF0.0
aF7.0
aF0.0
aa(lp202
F43.0
aF1.0
aF4.0
aF110.0
aF211.0
aF0.0
aF0.0
aF161.0
aF0.0
aF0.0
aF1.0
aF0.0
aF7.0
aF0.0
aa(lp203
F45.0
aF1.0
aF4.0
aF142.0
aF309.0
aF0.0
aF2.0
aF147.0
aF1.0
aF0.0
aF2.0
aF3.0
aF7.0
aF3.0
aa(lp204
F58.0
aF1.0
aF4.0
aF128.0
aF259.0
aF0.0
aF2.0
aF130.0
aF1.0
aF3.0
aF2.0
aF2.0
aF7.0
aF3.0
aa(lp205
F50.0
aF1.0
aF4.0
aF144.0
aF200.0
aF0.0
aF2.0
aF126.0
aF1.0
aF0.9
aF2.0
aF0.0
aF7.0
aF3.0
aa(lp206
F55.0
aF1.0
aF2.0
aF130.0
aF262.0
aF0.0
aF0.0
aF155.0
aF0.0
aF0.0
aF1.0
aF0.0
aF3.0
aF0.0
aa(lp207
F62.0
aF0.0
aF4.0
aF150.0
aF244.0
aF0.0
aF0.0
aF154.0
aF1.0
aF1.4
aF2.0
aF0.0
aF3.0
aF1.0
aa(lp208
F37.0
aF0.0
aF3.0
aF120.0
aF215.0
aF0.0
aF0.0
aF170.0
aF0.0
aF0.0
aF1.0
aF0.0
aF3.0
aF0.0
aa(lp209
F38.0
aF1.0
aF1.0
aF120.0
aF231.0
aF0.0
aF0.0
aF182.0
aF1.0
aF3.8
aF2.0
aF0.0
aF7.0
aF4.0
aa(lp210
F41.0
aF1.0
aF3.0
aF130.0
aF214.0
aF0.0
aF2.0
aF168.0
aF0.0
aF2.0
aF2.0
aF0.0
aF3.0
aF0.0
aa(lp211
F66.0
aF0.0
aF4.0
aF178.0
aF228.0
aF1.0
aF0.0
aF165.0
aF1.0
aF1.0
aF2.0
aF2.0
aF7.0
aF3.0
aa(lp212
F52.0
aF1.0
aF4.0
aF112.0
aF230.0
aF0.0
aF0.0
aF160.0
aF0.0
aF0.0
aF1.0
aF1.0
aF3.0
aF1.0
aa(lp213
F56.0
aF1.0
aF1.0
aF120.0
aF193.0
aF0.0
aF2.0
aF162.0
aF0.0
aF1.9
aF2.0
aF0.0
aF7.0
aF0.0
aa(lp214
F46.0
aF0.0
aF2.0
aF105.0
aF204.0
aF0.0
aF0.0
aF172.0
aF0.0
aF0.0
aF1.0
aF0.0
aF3.0
aF0.0
aa(lp215
F46.0
aF0.0
aF4.0
aF138.0
aF243.0
aF0.0
aF2.0
aF152.0
aF1.0
aF0.0
aF2.0
aF0.0
aF3.0
aF0.0
aa(lp216
F64.0
aF0.0
aF4.0
aF130.0
aF303.0
aF0.0
aF0.0
aF122.0
aF0.0
aF2.0
aF2.0
aF2.0
aF3.0
aF0.0
aa(lp217
F59.0
aF1.0
aF4.0
aF138.0
aF271.0
aF0.0
aF2.0
aF182.0
aF0.0
aF0.0
aF1.0
aF0.0
aF3.0
aF0.0
aa(lp218
F41.0
aF0.0
aF3.0
aF112.0
aF268.0
aF0.0
aF2.0
aF172.0
aF1.0
aF0.0
aF1.0
aF0.0
aF3.0
aF0.0
aa(lp219
F54.0
aF0.0
aF3.0
aF108.0
aF267.0
aF0.0
aF2.0
aF167.0
aF0.0
aF0.0
aF1.0
aF0.0
aF3.0
aF0.0
aa(lp220
F39.0
aF0.0
aF3.0
aF94.0
aF199.0
aF0.0
aF0.0
aF179.0
aF0.0
aF0.0
aF1.0
aF0.0
aF3.0
aF0.0
aa(lp221
F53.0
aF1.0
aF4.0
aF123.0
aF282.0
aF0.0
aF0.0
aF95.0
aF1.0
aF2.0
aF2.0
aF2.0
aF7.0
aF3.0
aa(lp222
F63.0
aF0.0
aF4.0
aF108.0
aF269.0
aF0.0
aF0.0
aF169.0
aF1.0
aF1.8
aF2.0
aF2.0
aF3.0
aF1.0
aa(lp223
F34.0
aF0.0
aF2.0
aF118.0
aF210.0
aF0.0
aF0.0
aF192.0
aF0.0
aF0.7
aF1.0
aF0.0
aF3.0
aF0.0
aa(lp224
F47.0
aF1.0
aF4.0
aF112.0
aF204.0
aF0.0
aF0.0
aF143.0
aF0.0
aF0.1
aF1.0
aF0.0
aF3.0
aF0.0
aa(lp225
F67.0
aF0.0
aF3.0
aF152.0
aF277.0
aF0.0
aF0.0
aF172.0
aF0.0
aF0.0
aF1.0
aF1.0
aF3.0
aF0.0
aa(lp226
F54.0
aF1.0
aF4.0
aF110.0
aF206.0
aF0.0
aF2.0
aF108.0
aF1.0
aF0.0
aF2.0
aF1.0
aF3.0
aF3.0
aa(lp227
F66.0
aF1.0
aF4.0
aF112.0
aF212.0
aF0.0
aF2.0
aF132.0
aF1.0
aF0.1
aF1.0
aF1.0
aF3.0
aF2.0
aa(lp228
F52.0
aF0.0
aF3.0
aF136.0
aF196.0
aF0.0
aF2.0
aF169.0
aF0.0
aF0.1
aF2.0
aF0.0
aF3.0
aF0.0
aa(lp229
F55.0
aF0.0
aF4.0
aF180.0
aF327.0
aF0.0
aF1.0
aF117.0
aF1.0
aF3.4
aF2.0
aF0.0
aF3.0
aF2.0
aa(lp230
F49.0
aF1.0
aF3.0
aF118.0
aF149.0
aF0.0
aF2.0
aF126.0
aF0.0
aF0.8
aF1.0
aF3.0
aF3.0
aF1.0
aa(lp231
F74.0
aF0.0
aF2.0
aF120.0
aF269.0
aF0.0
aF2.0
aF121.0
aF1.0
aF0.2
aF1.0
aF1.0
aF3.0
aF0.0
aa(lp232
F54.0
aF0.0
aF3.0
aF160.0
aF201.0
aF0.0
aF0.0
aF163.0
aF0.0
aF0.0
aF1.0
aF1.0
aF3.0
aF0.0
aa(lp233
F54.0
aF1.0
aF4.0
aF122.0
aF286.0
aF0.0
aF2.0
aF116.0
aF1.0
aF3.2
aF2.0
aF2.0
aF3.0
aF3.0
aa(lp234
F56.0
aF1.0
aF4.0
aF130.0
aF283.0
aF1.0
aF2.0
aF103.0
aF1.0
aF1.6
aF3.0
aF0.0
aF7.0
aF2.0
aa(lp235
F46.0
aF1.0
aF4.0
aF120.0
aF249.0
aF0.0
aF2.0
aF144.0
aF0.0
aF0.8
aF1.0
aF0.0
aF7.0
aF1.0
aa(lp236
F49.0
aF0.0
aF2.0
aF134.0
aF271.0
aF0.0
aF0.0
aF162.0
aF0.0
aF0.0
aF2.0
aF0.0
aF3.0
aF0.0
aa(lp237
F42.0
aF1.0
aF2.0
aF120.0
aF295.0
aF0.0
aF0.0
aF162.0
aF0.0
aF0.0
aF1.0
aF0.0
aF3.0
aF0.0
aa(lp238
F41.0
aF1.0
aF2.0
aF110.0
aF235.0
aF0.0
aF0.0
aF153.0
aF0.0
aF0.0
aF1.0
aF0.0
aF3.0
aF0.0
aa(lp239
F41.0
aF0.0
aF2.0
aF126.0
aF306.0
aF0.0
aF0.0
aF163.0
aF0.0
aF0.0
aF1.0
aF0.0
aF3.0
aF0.0
aa(lp240
F49.0
aF0.0
aF4.0
aF130.0
aF269.0
aF0.0
aF0.0
aF163.0
aF0.0
aF0.0
aF1.0
aF0.0
aF3.0
aF0.0
aa(lp241
F61.0
aF1.0
aF1.0
aF134.0
aF234.0
aF0.0
aF0.0
aF145.0
aF0.0
aF2.6
aF2.0
aF2.0
aF3.0
aF2.0
aa(lp242
F60.0
aF0.0
aF3.0
aF120.0
aF178.0
aF1.0
aF0.0
aF96.0
aF0.0
aF0.0
aF1.0
aF0.0
aF3.0
aF0.0
aa(lp243
F67.0
aF1.0
aF4.0
aF120.0
aF237.0
aF0.0
aF0.0
aF71.0
aF0.0
aF1.0
aF2.0
aF0.0
aF3.0
aF2.0
aa(lp244
F58.0
aF1.0
aF4.0
aF100.0
aF234.0
aF0.0
aF0.0
aF156.0
aF0.0
aF0.1
aF1.0
aF1.0
aF7.0
aF2.0
aa(lp245
F47.0
aF1.0
aF4.0
aF110.0
aF275.0
aF0.0
aF2.0
aF118.0
aF1.0
aF1.0
aF2.0
aF1.0
aF3.0
aF1.0
aa(lp246
F52.0
aF1.0
aF4.0
aF125.0
aF212.0
aF0.0
aF0.0
aF168.0
aF0.0
aF1.0
aF1.0
aF2.0
aF7.0
aF3.0
aa(lp247
F62.0
aF1.0
aF2.0
aF128.0
aF208.0
aF1.0
aF2.0
aF140.0
aF0.0
aF0.0
aF1.0
aF0.0
aF3.0
aF0.0
aa(lp248
F57.0
aF1.0
aF4.0
aF110.0
aF201.0
aF0.0
aF0.0
aF126.0
aF1.0
aF1.5
aF2.0
aF0.0
aF6.0
aF0.0
aa(lp249
F58.0
aF1.0
aF4.0
aF146.0
aF218.0
aF0.0
aF0.0
aF105.0
aF0.0
aF2.0
aF2.0
aF1.0
aF7.0
aF1.0
aa(lp250
F64.0
aF1.0
aF4.0
aF128.0
aF263.0
aF0.0
aF0.0
aF105.0
aF1.0
aF0.2
aF2.0
aF1.0
aF7.0
aF0.0
aa(lp251
F51.0
aF0.0
aF3.0
aF120.0
aF295.0
aF0.0
aF2.0
aF157.0
aF0.0
aF0.6
aF1.0
aF0.0
aF3.0
aF0.0
aa(lp252
F43.0
aF1.0
aF4.0
aF115.0
aF303.0
aF0.0
aF0.0
aF181.0
aF0.0
aF1.2
aF2.0
aF0.0
aF3.0
aF0.0
aa(lp253
F42.0
aF0.0
aF3.0
aF120.0
aF209.0
aF0.0
aF0.0
aF173.0
aF0.0
aF0.0
aF2.0
aF0.0
aF3.0
aF0.0
aa(lp254
F67.0
aF0.0
aF4.0
aF106.0
aF223.0
aF0.0
aF0.0
aF142.0
aF0.0
aF0.3
aF1.0
aF2.0
aF3.0
aF0.0
aa(lp255
F76.0
aF0.0
aF3.0
aF140.0
aF197.0
aF0.0
aF1.0
aF116.0
aF0.0
aF1.1
aF2.0
aF0.0
aF3.0
aF0.0
aa(lp256
F70.0
aF1.0
aF2.0
aF156.0
aF245.0
aF0.0
aF2.0
aF143.0
aF0.0
aF0.0
aF1.0
aF0.0
aF3.0
aF0.0
aa(lp257
F57.0
aF1.0
aF2.0
aF124.0
aF261.0
aF0.0
aF0.0
aF141.0
aF0.0
aF0.3
aF1.0
aF0.0
aF7.0
aF1.0
aa(lp258
F44.0
aF0.0
aF3.0
aF118.0
aF242.0
aF0.0
aF0.0
aF149.0
aF0.0
aF0.3
aF2.0
aF1.0
aF3.0
aF0.0
aa(lp259
F58.0
aF0.0
aF2.0
aF136.0
aF319.0
aF1.0
aF2.0
aF152.0
aF0.0
aF0.0
aF1.0
aF2.0
aF3.0
aF3.0
aa(lp260
F60.0
aF0.0
aF1.0
aF150.0
aF240.0
aF0.0
aF0.0
aF171.0
aF0.0
aF0.9
aF1.0
aF0.0
aF3.0
aF0.0
aa(lp261
F44.0
aF1.0
aF3.0
aF120.0
aF226.0
aF0.0
aF0.0
aF169.0
aF0.0
aF0.0
aF1.0
aF0.0
aF3.0
aF0.0
aa(lp262
F61.0
aF1.0
aF4.0
aF138.0
aF166.0
aF0.0
aF2.0
aF125.0
aF1.0
aF3.6
aF2.0
aF1.0
aF3.0
aF4.0
aa(lp263
F42.0
aF1.0
aF4.0
aF136.0
aF315.0
aF0.0
aF0.0
aF125.0
aF1.0
aF1.8
aF2.0
aF0.0
aF6.0
aF2.0
aa(lp264
F59.0
aF1.0
aF3.0
aF126.0
aF218.0
aF1.0
aF0.0
aF134.0
aF0.0
aF2.2
aF2.0
aF1.0
aF6.0
aF2.0
aa(lp265
F40.0
aF1.0
aF4.0
aF152.0
aF223.0
aF0.0
aF0.0
aF181.0
aF0.0
aF0.0
aF1.0
aF0.0
aF7.0
aF1.0
aa(lp266
F42.0
aF1.0
aF3.0
aF130.0
aF180.0
aF0.0
aF0.0
aF150.0
aF0.0
aF0.0
aF1.0
aF0.0
aF3.0
aF0.0
aa(lp267
F61.0
aF1.0
aF4.0
aF140.0
aF207.0
aF0.0
aF2.0
aF138.0
aF1.0
aF1.9
aF1.0
aF1.0
aF7.0
aF1.0
aa(lp268
F66.0
aF1.0
aF4.0
aF160.0
aF228.0
aF0.0
aF2.0
aF138.0
aF0.0
aF2.3
aF1.0
aF0.0
aF6.0
aF0.0
aa(lp269
F46.0
aF1.0
aF4.0
aF140.0
aF311.0
aF0.0
aF0.0
aF120.0
aF1.0
aF1.8
aF2.0
aF2.0
aF7.0
aF2.0
aa(lp270
F71.0
aF0.0
aF4.0
aF112.0
aF149.0
aF0.0
aF0.0
aF125.0
aF0.0
aF1.6
aF2.0
aF0.0
aF3.0
aF0.0
aa(lp271
F59.0
aF1.0
aF1.0
aF134.0
aF204.0
aF0.0
aF0.0
aF162.0
aF0.0
aF0.8
aF1.0
aF2.0
aF3.0
aF1.0
aa(lp272
F64.0
aF1.0
aF1.0
aF170.0
aF227.0
aF0.0
aF2.0
aF155.0
aF0.0
aF0.6
aF2.0
aF0.0
aF7.0
aF0.0
aa(lp273
F66.0
aF0.0
aF3.0
aF146.0
aF278.0
aF0.0
aF2.0
aF152.0
aF0.0
aF0.0
aF2.0
aF1.0
aF3.0
aF0.0
aa(lp274
F39.0
aF0.0
aF3.0
aF138.0
aF220.0
aF0.0
aF0.0
aF152.0
aF0.0
aF0.0
aF2.0
aF0.0
aF3.0
aF0.0
aa(lp275
F57.0
aF1.0
aF2.0
aF154.0
aF232.0
aF0.0
aF2.0
aF164.0
aF0.0
aF0.0
aF1.0
aF1.0
aF3.0
aF1.0
aa(lp276
F58.0
aF0.0
aF4.0
aF130.0
aF197.0
aF0.0
aF0.0
aF131.0
aF0.0
aF0.6
aF2.0
aF0.0
aF3.0
aF0.0
aa(lp277
F57.0
aF1.0
aF4.0
aF110.0
aF335.0
aF0.0
aF0.0
aF143.0
aF1.0
aF3.0
aF2.0
aF1.0
aF7.0
aF2.0
aa(lp278
F47.0
aF1.0
aF3.0
aF130.0
aF253.0
aF0.0
aF0.0
aF179.0
aF0.0
aF0.0
aF1.0
aF0.0
aF3.0
aF0.0
aa(lp279
F55.0
aF0.0
aF4.0
aF128.0
aF205.0
aF0.0
aF1.0
aF130.0
aF1.0
aF2.0
aF2.0
aF1.0
aF7.0
aF3.0
aa(lp280
F35.0
aF1.0
aF2.0
aF122.0
aF192.0
aF0.0
aF0.0
aF174.0
aF0.0
aF0.0
aF1.0
aF0.0
aF3.0
aF0.0
aa(lp281
F61.0
aF1.0
aF4.0
aF148.0
aF203.0
aF0.0
aF0.0
aF161.0
aF0.0
aF0.0
aF1.0
aF1.0
aF7.0
aF2.0
aa(lp282
F58.0
aF1.0
aF4.0
aF114.0
aF318.0
aF0.0
aF1.0
aF140.0
aF0.0
aF4.4
aF3.0
aF3.0
aF6.0
aF4.0
aa(lp283
F58.0
aF0.0
aF4.0
aF170.0
aF225.0
aF1.0
aF2.0
aF146.0
aF1.0
aF2.8
aF2.0
aF2.0
aF6.0
aF2.0
aa(lp284
F56.0
aF1.0
aF2.0
aF130.0
aF221.0
aF0.0
aF2.0
aF163.0
aF0.0
aF0.0
aF1.0
aF0.0
aF7.0
aF0.0
aa(lp285
F56.0
aF1.0
aF2.0
aF120.0
aF240.0
aF0.0
aF0.0
aF169.0
aF0.0
aF0.0
aF3.0
aF0.0
aF3.0
aF0.0
aa(lp286
F67.0
aF1.0
aF3.0
aF152.0
aF212.0
aF0.0
aF2.0
aF150.0
aF0.0
aF0.8
aF2.0
aF0.0
aF7.0
aF1.0
aa(lp287
F55.0
aF0.0
aF2.0
aF132.0
aF342.0
aF0.0
aF0.0
aF166.0
aF0.0
aF1.2
aF1.0
aF0.0
aF3.0
aF0.0
aa(lp288
F44.0
aF1.0
aF4.0
aF120.0
aF169.0
aF0.0
aF0.0
aF144.0
aF1.0
aF2.8
aF3.0
aF0.0
aF6.0
aF2.0
aa(lp289
F63.0
aF1.0
aF4.0
aF140.0
aF187.0
aF0.0
aF2.0
aF144.0
aF1.0
aF4.0
aF1.0
aF2.0
aF7.0
aF2.0
aa(lp290
F63.0
aF0.0
aF4.0
aF124.0
aF197.0
aF0.0
aF0.0
aF136.0
aF1.0
aF0.0
aF2.0
aF0.0
aF3.0
aF1.0
aa(lp291
F41.0
aF1.0
aF2.0
aF120.0
aF157.0
aF0.0
aF0.0
aF182.0
aF0.0
aF0.0
aF1.0
aF0.0
aF3.0
aF0.0
aa(lp292
F59.0
aF1.0
aF4.0
aF164.0
aF176.0
aF1.0
aF2.0
aF90.0
aF0.0
aF1.0
aF2.0
aF2.0
aF6.0
aF3.0
aa(lp293
F57.0
aF0.0
aF4.0
aF140.0
aF241.0
aF0.0
aF0.0
aF123.0
aF1.0
aF0.2
aF2.0
aF0.0
aF7.0
aF1.0
aa(lp294
F45.0
aF1.0
aF1.0
aF110.0
aF264.0
aF0.0
aF0.0
aF132.0
aF0.0
aF1.2
aF2.0
aF0.0
aF7.0
aF1.0
aa(lp295
F68.0
aF1.0
aF4.0
aF144.0
aF193.0
aF1.0
aF0.0
aF141.0
aF0.0
aF3.4
aF2.0
aF2.0
aF7.0
aF2.0
aa(lp296
F57.0
aF1.0
aF4.0
aF130.0
aF131.0
aF0.0
aF0.0
aF115.0
aF1.0
aF1.2
aF2.0
aF1.0
aF7.0
aF3.0
aa(lp297
F57.0
aF0.0
aF2.0
aF130.0
aF236.0
aF0.0
aF2.0
aF174.0
aF0.0
aF0.0
aF2.0
aF1.0
aF3.0
aF1.0
aa.